ccopy_reg
_reconstructor
p0
(ctextblob.classifiers
NaiveBayesClassifier
p1
c__builtin__
object
p2
Ntp3
Rp4
(dp5
S'format_kwargs'
p6
(dp7
sS'train_features'
p8
(lp9
((dp10
Vcontains(Fixed)
p11
I00
sVcontains(on)
p12
I00
sVcontains(info)
p13
I00
sVcontains(information)
p14
I00
sVcontains(Rates)
p15
I00
sVcontains(advantages)
p16
I00
sVcontains(for)
p17
I00
sVcontains(know)
p18
I00
sVcontains(tenures)
p19
I00
sVcontains(Hi)
p20
I00
sVcontains(Deposit)
p21
I00
sVcontains(RD)
p22
I00
sVcontains(FD)
p23
I00
sVcontains(about)
p24
I00
sVcontains(Hello)
p25
I01
sVcontains(rates)
p26
I00
sVcontains(provide)
p27
I00
sVcontains(world)
p28
I00
sVcontains(recurring)
p29
I00
sVcontains(Require)
p30
I00
sVcontains(and)
p31
I00
sVcontains(Please)
p32
I00
sVcontains(Click)
p33
I00
sVcontains(require)
p34
I00
sVcontains(To)
p35
I00
sS'Hello'
p36
tp37
a((dp38
Vcontains(Fixed)
p39
I00
sVcontains(on)
p40
I00
sVcontains(info)
p41
I00
sVcontains(information)
p42
I00
sVcontains(Rates)
p43
I00
sVcontains(advantages)
p44
I00
sVcontains(for)
p45
I00
sVcontains(know)
p46
I00
sVcontains(tenures)
p47
I00
sVcontains(Hi)
p48
I00
sVcontains(Deposit)
p49
I00
sVcontains(RD)
p50
I00
sVcontains(FD)
p51
I00
sVcontains(about)
p52
I00
sVcontains(Hello)
p53
I01
sVcontains(rates)
p54
I00
sVcontains(provide)
p55
I00
sVcontains(world)
p56
I01
sVcontains(recurring)
p57
I00
sVcontains(Require)
p58
I00
sVcontains(and)
p59
I00
sVcontains(Please)
p60
I00
sVcontains(Click)
p61
I00
sVcontains(require)
p62
I00
sVcontains(To)
p63
I00
sg36
tp64
a((dp65
Vcontains(Fixed)
p66
I00
sVcontains(on)
p67
I00
sVcontains(info)
p68
I00
sVcontains(information)
p69
I00
sVcontains(Rates)
p70
I00
sVcontains(advantages)
p71
I00
sVcontains(for)
p72
I00
sVcontains(know)
p73
I00
sVcontains(tenures)
p74
I00
sVcontains(Hi)
p75
I01
sVcontains(Deposit)
p76
I00
sVcontains(RD)
p77
I00
sVcontains(FD)
p78
I00
sVcontains(about)
p79
I00
sVcontains(Hello)
p80
I00
sVcontains(rates)
p81
I00
sVcontains(provide)
p82
I00
sVcontains(world)
p83
I00
sVcontains(recurring)
p84
I00
sVcontains(Require)
p85
I00
sVcontains(and)
p86
I00
sVcontains(Please)
p87
I00
sVcontains(Click)
p88
I00
sVcontains(require)
p89
I00
sVcontains(To)
p90
I00
sg36
tp91
a((dp92
Vcontains(Fixed)
p93
I00
sVcontains(on)
p94
I00
sVcontains(info)
p95
I01
sVcontains(information)
p96
I00
sVcontains(Rates)
p97
I00
sVcontains(advantages)
p98
I00
sVcontains(for)
p99
I00
sVcontains(know)
p100
I00
sVcontains(tenures)
p101
I00
sVcontains(Hi)
p102
I00
sVcontains(Deposit)
p103
I00
sVcontains(RD)
p104
I00
sVcontains(FD)
p105
I01
sVcontains(about)
p106
I00
sVcontains(Hello)
p107
I00
sVcontains(rates)
p108
I00
sVcontains(provide)
p109
I01
sVcontains(world)
p110
I00
sVcontains(recurring)
p111
I00
sVcontains(Require)
p112
I00
sVcontains(and)
p113
I00
sVcontains(Please)
p114
I01
sVcontains(Click)
p115
I00
sVcontains(require)
p116
I00
sVcontains(To)
p117
I00
sS'FDInfo'
p118
tp119
a((dp120
Vcontains(Fixed)
p121
I00
sVcontains(on)
p122
I01
sVcontains(info)
p123
I00
sVcontains(information)
p124
I01
sVcontains(Rates)
p125
I00
sVcontains(advantages)
p126
I00
sVcontains(for)
p127
I00
sVcontains(know)
p128
I00
sVcontains(tenures)
p129
I00
sVcontains(Hi)
p130
I00
sVcontains(Deposit)
p131
I00
sVcontains(RD)
p132
I00
sVcontains(FD)
p133
I01
sVcontains(about)
p134
I00
sVcontains(Hello)
p135
I00
sVcontains(rates)
p136
I00
sVcontains(provide)
p137
I01
sVcontains(world)
p138
I00
sVcontains(recurring)
p139
I00
sVcontains(Require)
p140
I00
sVcontains(and)
p141
I00
sVcontains(Please)
p142
I01
sVcontains(Click)
p143
I00
sVcontains(require)
p144
I00
sVcontains(To)
p145
I00
sg118
tp146
a((dp147
Vcontains(Fixed)
p148
I01
sVcontains(on)
p149
I01
sVcontains(info)
p150
I00
sVcontains(information)
p151
I01
sVcontains(Rates)
p152
I00
sVcontains(advantages)
p153
I00
sVcontains(for)
p154
I00
sVcontains(know)
p155
I00
sVcontains(tenures)
p156
I00
sVcontains(Hi)
p157
I00
sVcontains(Deposit)
p158
I01
sVcontains(RD)
p159
I00
sVcontains(FD)
p160
I00
sVcontains(about)
p161
I00
sVcontains(Hello)
p162
I00
sVcontains(rates)
p163
I00
sVcontains(provide)
p164
I00
sVcontains(world)
p165
I00
sVcontains(recurring)
p166
I00
sVcontains(Require)
p167
I01
sVcontains(and)
p168
I00
sVcontains(Please)
p169
I00
sVcontains(Click)
p170
I00
sVcontains(require)
p171
I00
sVcontains(To)
p172
I00
sg118
tp173
a((dp174
Vcontains(Fixed)
p175
I00
sVcontains(on)
p176
I01
sVcontains(info)
p177
I00
sVcontains(information)
p178
I01
sVcontains(Rates)
p179
I00
sVcontains(advantages)
p180
I00
sVcontains(for)
p181
I00
sVcontains(know)
p182
I00
sVcontains(tenures)
p183
I00
sVcontains(Hi)
p184
I00
sVcontains(Deposit)
p185
I00
sVcontains(RD)
p186
I00
sVcontains(FD)
p187
I01
sVcontains(about)
p188
I00
sVcontains(Hello)
p189
I00
sVcontains(rates)
p190
I00
sVcontains(provide)
p191
I00
sVcontains(world)
p192
I00
sVcontains(recurring)
p193
I00
sVcontains(Require)
p194
I01
sVcontains(and)
p195
I00
sVcontains(Please)
p196
I00
sVcontains(Click)
p197
I00
sVcontains(require)
p198
I00
sVcontains(To)
p199
I00
sg118
tp200
a((dp201
Vcontains(Fixed)
p202
I01
sVcontains(on)
p203
I00
sVcontains(info)
p204
I00
sVcontains(information)
p205
I01
sVcontains(Rates)
p206
I00
sVcontains(advantages)
p207
I00
sVcontains(for)
p208
I00
sVcontains(know)
p209
I00
sVcontains(tenures)
p210
I00
sVcontains(Hi)
p211
I00
sVcontains(Deposit)
p212
I01
sVcontains(RD)
p213
I00
sVcontains(FD)
p214
I00
sVcontains(about)
p215
I00
sVcontains(Hello)
p216
I00
sVcontains(rates)
p217
I00
sVcontains(provide)
p218
I00
sVcontains(world)
p219
I00
sVcontains(recurring)
p220
I00
sVcontains(Require)
p221
I00
sVcontains(and)
p222
I00
sVcontains(Please)
p223
I00
sVcontains(Click)
p224
I00
sVcontains(require)
p225
I00
sVcontains(To)
p226
I00
sg118
tp227
a((dp228
Vcontains(Fixed)
p229
I01
sVcontains(on)
p230
I00
sVcontains(info)
p231
I00
sVcontains(information)
p232
I00
sVcontains(Rates)
p233
I00
sVcontains(advantages)
p234
I00
sVcontains(for)
p235
I00
sVcontains(know)
p236
I00
sVcontains(tenures)
p237
I00
sVcontains(Hi)
p238
I00
sVcontains(Deposit)
p239
I01
sVcontains(RD)
p240
I00
sVcontains(FD)
p241
I00
sVcontains(about)
p242
I00
sVcontains(Hello)
p243
I00
sVcontains(rates)
p244
I00
sVcontains(provide)
p245
I00
sVcontains(world)
p246
I00
sVcontains(recurring)
p247
I00
sVcontains(Require)
p248
I00
sVcontains(and)
p249
I00
sVcontains(Please)
p250
I00
sVcontains(Click)
p251
I00
sVcontains(require)
p252
I00
sVcontains(To)
p253
I00
sg118
tp254
a((dp255
Vcontains(Fixed)
p256
I00
sVcontains(on)
p257
I00
sVcontains(info)
p258
I00
sVcontains(information)
p259
I00
sVcontains(Rates)
p260
I00
sVcontains(advantages)
p261
I00
sVcontains(for)
p262
I00
sVcontains(know)
p263
I00
sVcontains(tenures)
p264
I00
sVcontains(Hi)
p265
I00
sVcontains(Deposit)
p266
I00
sVcontains(RD)
p267
I00
sVcontains(FD)
p268
I01
sVcontains(about)
p269
I00
sVcontains(Hello)
p270
I00
sVcontains(rates)
p271
I00
sVcontains(provide)
p272
I00
sVcontains(world)
p273
I00
sVcontains(recurring)
p274
I00
sVcontains(Require)
p275
I00
sVcontains(and)
p276
I00
sVcontains(Please)
p277
I00
sVcontains(Click)
p278
I00
sVcontains(require)
p279
I00
sVcontains(To)
p280
I00
sg118
tp281
a((dp282
Vcontains(Fixed)
p283
I00
sVcontains(on)
p284
I00
sVcontains(info)
p285
I01
sVcontains(information)
p286
I00
sVcontains(Rates)
p287
I00
sVcontains(advantages)
p288
I00
sVcontains(for)
p289
I00
sVcontains(know)
p290
I00
sVcontains(tenures)
p291
I00
sVcontains(Hi)
p292
I00
sVcontains(Deposit)
p293
I00
sVcontains(RD)
p294
I01
sVcontains(FD)
p295
I00
sVcontains(about)
p296
I00
sVcontains(Hello)
p297
I00
sVcontains(rates)
p298
I00
sVcontains(provide)
p299
I01
sVcontains(world)
p300
I00
sVcontains(recurring)
p301
I00
sVcontains(Require)
p302
I00
sVcontains(and)
p303
I00
sVcontains(Please)
p304
I01
sVcontains(Click)
p305
I00
sVcontains(require)
p306
I00
sVcontains(To)
p307
I00
sS'RDInfo'
p308
tp309
a((dp310
Vcontains(Fixed)
p311
I00
sVcontains(on)
p312
I01
sVcontains(info)
p313
I00
sVcontains(information)
p314
I01
sVcontains(Rates)
p315
I00
sVcontains(advantages)
p316
I00
sVcontains(for)
p317
I00
sVcontains(know)
p318
I00
sVcontains(tenures)
p319
I00
sVcontains(Hi)
p320
I00
sVcontains(Deposit)
p321
I00
sVcontains(RD)
p322
I01
sVcontains(FD)
p323
I00
sVcontains(about)
p324
I00
sVcontains(Hello)
p325
I00
sVcontains(rates)
p326
I00
sVcontains(provide)
p327
I01
sVcontains(world)
p328
I00
sVcontains(recurring)
p329
I00
sVcontains(Require)
p330
I00
sVcontains(and)
p331
I00
sVcontains(Please)
p332
I01
sVcontains(Click)
p333
I00
sVcontains(require)
p334
I00
sVcontains(To)
p335
I00
sg308
tp336
a((dp337
Vcontains(Fixed)
p338
I00
sVcontains(on)
p339
I01
sVcontains(info)
p340
I00
sVcontains(information)
p341
I01
sVcontains(Rates)
p342
I00
sVcontains(advantages)
p343
I00
sVcontains(for)
p344
I00
sVcontains(know)
p345
I00
sVcontains(tenures)
p346
I00
sVcontains(Hi)
p347
I00
sVcontains(Deposit)
p348
I00
sVcontains(RD)
p349
I01
sVcontains(FD)
p350
I00
sVcontains(about)
p351
I00
sVcontains(Hello)
p352
I00
sVcontains(rates)
p353
I00
sVcontains(provide)
p354
I00
sVcontains(world)
p355
I00
sVcontains(recurring)
p356
I00
sVcontains(Require)
p357
I01
sVcontains(and)
p358
I00
sVcontains(Please)
p359
I00
sVcontains(Click)
p360
I00
sVcontains(require)
p361
I00
sVcontains(To)
p362
I00
sg308
tp363
a((dp364
Vcontains(Fixed)
p365
I00
sVcontains(on)
p366
I01
sVcontains(info)
p367
I00
sVcontains(information)
p368
I01
sVcontains(Rates)
p369
I00
sVcontains(advantages)
p370
I00
sVcontains(for)
p371
I00
sVcontains(know)
p372
I00
sVcontains(tenures)
p373
I00
sVcontains(Hi)
p374
I00
sVcontains(Deposit)
p375
I01
sVcontains(RD)
p376
I00
sVcontains(FD)
p377
I00
sVcontains(about)
p378
I00
sVcontains(Hello)
p379
I00
sVcontains(rates)
p380
I00
sVcontains(provide)
p381
I00
sVcontains(world)
p382
I00
sVcontains(recurring)
p383
I01
sVcontains(Require)
p384
I01
sVcontains(and)
p385
I00
sVcontains(Please)
p386
I00
sVcontains(Click)
p387
I00
sVcontains(require)
p388
I00
sVcontains(To)
p389
I00
sg308
tp390
a((dp391
Vcontains(Fixed)
p392
I00
sVcontains(on)
p393
I00
sVcontains(info)
p394
I00
sVcontains(information)
p395
I01
sVcontains(Rates)
p396
I00
sVcontains(advantages)
p397
I00
sVcontains(for)
p398
I00
sVcontains(know)
p399
I00
sVcontains(tenures)
p400
I00
sVcontains(Hi)
p401
I00
sVcontains(Deposit)
p402
I01
sVcontains(RD)
p403
I00
sVcontains(FD)
p404
I00
sVcontains(about)
p405
I00
sVcontains(Hello)
p406
I00
sVcontains(rates)
p407
I00
sVcontains(provide)
p408
I00
sVcontains(world)
p409
I00
sVcontains(recurring)
p410
I01
sVcontains(Require)
p411
I00
sVcontains(and)
p412
I00
sVcontains(Please)
p413
I00
sVcontains(Click)
p414
I00
sVcontains(require)
p415
I00
sVcontains(To)
p416
I00
sg308
tp417
a((dp418
Vcontains(Fixed)
p419
I00
sVcontains(on)
p420
I00
sVcontains(info)
p421
I00
sVcontains(information)
p422
I00
sVcontains(Rates)
p423
I00
sVcontains(advantages)
p424
I00
sVcontains(for)
p425
I00
sVcontains(know)
p426
I00
sVcontains(tenures)
p427
I00
sVcontains(Hi)
p428
I00
sVcontains(Deposit)
p429
I01
sVcontains(RD)
p430
I00
sVcontains(FD)
p431
I00
sVcontains(about)
p432
I00
sVcontains(Hello)
p433
I00
sVcontains(rates)
p434
I00
sVcontains(provide)
p435
I00
sVcontains(world)
p436
I00
sVcontains(recurring)
p437
I01
sVcontains(Require)
p438
I00
sVcontains(and)
p439
I00
sVcontains(Please)
p440
I00
sVcontains(Click)
p441
I00
sVcontains(require)
p442
I00
sVcontains(To)
p443
I00
sg308
tp444
a((dp445
Vcontains(Fixed)
p446
I00
sVcontains(on)
p447
I00
sVcontains(info)
p448
I00
sVcontains(information)
p449
I00
sVcontains(Rates)
p450
I00
sVcontains(advantages)
p451
I00
sVcontains(for)
p452
I00
sVcontains(know)
p453
I00
sVcontains(tenures)
p454
I00
sVcontains(Hi)
p455
I00
sVcontains(Deposit)
p456
I00
sVcontains(RD)
p457
I01
sVcontains(FD)
p458
I00
sVcontains(about)
p459
I00
sVcontains(Hello)
p460
I00
sVcontains(rates)
p461
I00
sVcontains(provide)
p462
I00
sVcontains(world)
p463
I00
sVcontains(recurring)
p464
I00
sVcontains(Require)
p465
I00
sVcontains(and)
p466
I00
sVcontains(Please)
p467
I00
sVcontains(Click)
p468
I00
sVcontains(require)
p469
I00
sVcontains(To)
p470
I00
sg308
tp471
a((dp472
Vcontains(Fixed)
p473
I01
sVcontains(on)
p474
I00
sVcontains(info)
p475
I00
sVcontains(information)
p476
I00
sVcontains(Rates)
p477
I01
sVcontains(advantages)
p478
I00
sVcontains(for)
p479
I00
sVcontains(know)
p480
I01
sVcontains(tenures)
p481
I00
sVcontains(Hi)
p482
I00
sVcontains(Deposit)
p483
I01
sVcontains(RD)
p484
I00
sVcontains(FD)
p485
I00
sVcontains(about)
p486
I01
sVcontains(Hello)
p487
I00
sVcontains(rates)
p488
I00
sVcontains(provide)
p489
I00
sVcontains(world)
p490
I00
sVcontains(recurring)
p491
I00
sVcontains(Require)
p492
I00
sVcontains(and)
p493
I00
sVcontains(Please)
p494
I00
sVcontains(Click)
p495
I00
sVcontains(require)
p496
I00
sVcontains(To)
p497
I01
sS'FDRates'
p498
tp499
a((dp500
Vcontains(Fixed)
p501
I01
sVcontains(on)
p502
I01
sVcontains(info)
p503
I00
sVcontains(information)
p504
I01
sVcontains(Rates)
p505
I01
sVcontains(advantages)
p506
I00
sVcontains(for)
p507
I00
sVcontains(know)
p508
I00
sVcontains(tenures)
p509
I00
sVcontains(Hi)
p510
I00
sVcontains(Deposit)
p511
I01
sVcontains(RD)
p512
I00
sVcontains(FD)
p513
I00
sVcontains(about)
p514
I00
sVcontains(Hello)
p515
I00
sVcontains(rates)
p516
I00
sVcontains(provide)
p517
I00
sVcontains(world)
p518
I00
sVcontains(recurring)
p519
I00
sVcontains(Require)
p520
I00
sVcontains(and)
p521
I00
sVcontains(Please)
p522
I00
sVcontains(Click)
p523
I00
sVcontains(require)
p524
I00
sVcontains(To)
p525
I00
sg498
tp526
a((dp527
Vcontains(Fixed)
p528
I01
sVcontains(on)
p529
I00
sVcontains(info)
p530
I00
sVcontains(information)
p531
I00
sVcontains(Rates)
p532
I01
sVcontains(advantages)
p533
I01
sVcontains(for)
p534
I00
sVcontains(know)
p535
I01
sVcontains(tenures)
p536
I00
sVcontains(Hi)
p537
I00
sVcontains(Deposit)
p538
I01
sVcontains(RD)
p539
I00
sVcontains(FD)
p540
I00
sVcontains(about)
p541
I01
sVcontains(Hello)
p542
I00
sVcontains(rates)
p543
I00
sVcontains(provide)
p544
I00
sVcontains(world)
p545
I00
sVcontains(recurring)
p546
I00
sVcontains(Require)
p547
I00
sVcontains(and)
p548
I01
sVcontains(Please)
p549
I00
sVcontains(Click)
p550
I01
sVcontains(require)
p551
I00
sVcontains(To)
p552
I01
sg498
tp553
a((dp554
Vcontains(Fixed)
p555
I00
sVcontains(on)
p556
I01
sVcontains(info)
p557
I00
sVcontains(information)
p558
I01
sVcontains(Rates)
p559
I00
sVcontains(advantages)
p560
I00
sVcontains(for)
p561
I00
sVcontains(know)
p562
I00
sVcontains(tenures)
p563
I00
sVcontains(Hi)
p564
I00
sVcontains(Deposit)
p565
I00
sVcontains(RD)
p566
I00
sVcontains(FD)
p567
I01
sVcontains(about)
p568
I00
sVcontains(Hello)
p569
I00
sVcontains(rates)
p570
I01
sVcontains(provide)
p571
I00
sVcontains(world)
p572
I00
sVcontains(recurring)
p573
I00
sVcontains(Require)
p574
I00
sVcontains(and)
p575
I00
sVcontains(Please)
p576
I00
sVcontains(Click)
p577
I00
sVcontains(require)
p578
I00
sVcontains(To)
p579
I00
sg498
tp580
a((dp581
Vcontains(Fixed)
p582
I01
sVcontains(on)
p583
I01
sVcontains(info)
p584
I01
sVcontains(information)
p585
I00
sVcontains(Rates)
p586
I00
sVcontains(advantages)
p587
I00
sVcontains(for)
p588
I00
sVcontains(know)
p589
I00
sVcontains(tenures)
p590
I00
sVcontains(Hi)
p591
I00
sVcontains(Deposit)
p592
I01
sVcontains(RD)
p593
I00
sVcontains(FD)
p594
I00
sVcontains(about)
p595
I00
sVcontains(Hello)
p596
I00
sVcontains(rates)
p597
I01
sVcontains(provide)
p598
I00
sVcontains(world)
p599
I00
sVcontains(recurring)
p600
I00
sVcontains(Require)
p601
I00
sVcontains(and)
p602
I00
sVcontains(Please)
p603
I00
sVcontains(Click)
p604
I00
sVcontains(require)
p605
I00
sVcontains(To)
p606
I00
sg498
tp607
a((dp608
Vcontains(Fixed)
p609
I00
sVcontains(on)
p610
I01
sVcontains(info)
p611
I01
sVcontains(information)
p612
I00
sVcontains(Rates)
p613
I00
sVcontains(advantages)
p614
I00
sVcontains(for)
p615
I00
sVcontains(know)
p616
I00
sVcontains(tenures)
p617
I00
sVcontains(Hi)
p618
I00
sVcontains(Deposit)
p619
I00
sVcontains(RD)
p620
I00
sVcontains(FD)
p621
I01
sVcontains(about)
p622
I00
sVcontains(Hello)
p623
I00
sVcontains(rates)
p624
I01
sVcontains(provide)
p625
I00
sVcontains(world)
p626
I00
sVcontains(recurring)
p627
I00
sVcontains(Require)
p628
I00
sVcontains(and)
p629
I00
sVcontains(Please)
p630
I00
sVcontains(Click)
p631
I00
sVcontains(require)
p632
I00
sVcontains(To)
p633
I00
sg498
tp634
a((dp635
Vcontains(Fixed)
p636
I00
sVcontains(on)
p637
I01
sVcontains(info)
p638
I00
sVcontains(information)
p639
I01
sVcontains(Rates)
p640
I00
sVcontains(advantages)
p641
I00
sVcontains(for)
p642
I01
sVcontains(know)
p643
I00
sVcontains(tenures)
p644
I00
sVcontains(Hi)
p645
I00
sVcontains(Deposit)
p646
I00
sVcontains(RD)
p647
I00
sVcontains(FD)
p648
I01
sVcontains(about)
p649
I00
sVcontains(Hello)
p650
I00
sVcontains(rates)
p651
I01
sVcontains(provide)
p652
I00
sVcontains(world)
p653
I00
sVcontains(recurring)
p654
I00
sVcontains(Require)
p655
I00
sVcontains(and)
p656
I00
sVcontains(Please)
p657
I00
sVcontains(Click)
p658
I00
sVcontains(require)
p659
I01
sVcontains(To)
p660
I00
sg498
tp661
a((dp662
Vcontains(Fixed)
p663
I01
sVcontains(on)
p664
I00
sVcontains(info)
p665
I00
sVcontains(information)
p666
I00
sVcontains(Rates)
p667
I00
sVcontains(advantages)
p668
I00
sVcontains(for)
p669
I00
sVcontains(know)
p670
I01
sVcontains(tenures)
p671
I01
sVcontains(Hi)
p672
I00
sVcontains(Deposit)
p673
I01
sVcontains(RD)
p674
I00
sVcontains(FD)
p675
I00
sVcontains(about)
p676
I01
sVcontains(Hello)
p677
I00
sVcontains(rates)
p678
I00
sVcontains(provide)
p679
I00
sVcontains(world)
p680
I00
sVcontains(recurring)
p681
I00
sVcontains(Require)
p682
I00
sVcontains(and)
p683
I00
sVcontains(Please)
p684
I00
sVcontains(Click)
p685
I00
sVcontains(require)
p686
I00
sVcontains(To)
p687
I01
sS'FDTenures'
p688
tp689
a((dp690
Vcontains(Fixed)
p691
I01
sVcontains(on)
p692
I01
sVcontains(info)
p693
I00
sVcontains(information)
p694
I01
sVcontains(Rates)
p695
I00
sVcontains(advantages)
p696
I00
sVcontains(for)
p697
I00
sVcontains(know)
p698
I00
sVcontains(tenures)
p699
I01
sVcontains(Hi)
p700
I00
sVcontains(Deposit)
p701
I01
sVcontains(RD)
p702
I00
sVcontains(FD)
p703
I00
sVcontains(about)
p704
I00
sVcontains(Hello)
p705
I00
sVcontains(rates)
p706
I00
sVcontains(provide)
p707
I00
sVcontains(world)
p708
I00
sVcontains(recurring)
p709
I00
sVcontains(Require)
p710
I00
sVcontains(and)
p711
I00
sVcontains(Please)
p712
I00
sVcontains(Click)
p713
I00
sVcontains(require)
p714
I00
sVcontains(To)
p715
I00
sg688
tp716
a((dp717
Vcontains(Fixed)
p718
I01
sVcontains(on)
p719
I01
sVcontains(info)
p720
I00
sVcontains(information)
p721
I01
sVcontains(Rates)
p722
I00
sVcontains(advantages)
p723
I00
sVcontains(for)
p724
I00
sVcontains(know)
p725
I00
sVcontains(tenures)
p726
I01
sVcontains(Hi)
p727
I00
sVcontains(Deposit)
p728
I01
sVcontains(RD)
p729
I00
sVcontains(FD)
p730
I00
sVcontains(about)
p731
I00
sVcontains(Hello)
p732
I00
sVcontains(rates)
p733
I00
sVcontains(provide)
p734
I00
sVcontains(world)
p735
I00
sVcontains(recurring)
p736
I00
sVcontains(Require)
p737
I00
sVcontains(and)
p738
I00
sVcontains(Please)
p739
I00
sVcontains(Click)
p740
I00
sVcontains(require)
p741
I00
sVcontains(To)
p742
I00
sg688
tp743
a((dp744
Vcontains(Fixed)
p745
I01
sVcontains(on)
p746
I00
sVcontains(info)
p747
I00
sVcontains(information)
p748
I00
sVcontains(Rates)
p749
I00
sVcontains(advantages)
p750
I00
sVcontains(for)
p751
I00
sVcontains(know)
p752
I01
sVcontains(tenures)
p753
I01
sVcontains(Hi)
p754
I00
sVcontains(Deposit)
p755
I01
sVcontains(RD)
p756
I00
sVcontains(FD)
p757
I00
sVcontains(about)
p758
I01
sVcontains(Hello)
p759
I00
sVcontains(rates)
p760
I00
sVcontains(provide)
p761
I00
sVcontains(world)
p762
I00
sVcontains(recurring)
p763
I00
sVcontains(Require)
p764
I00
sVcontains(and)
p765
I00
sVcontains(Please)
p766
I00
sVcontains(Click)
p767
I00
sVcontains(require)
p768
I00
sVcontains(To)
p769
I01
sg688
tp770
a((dp771
Vcontains(Fixed)
p772
I01
sVcontains(on)
p773
I00
sVcontains(info)
p774
I00
sVcontains(information)
p775
I01
sVcontains(Rates)
p776
I00
sVcontains(advantages)
p777
I00
sVcontains(for)
p778
I01
sVcontains(know)
p779
I00
sVcontains(tenures)
p780
I01
sVcontains(Hi)
p781
I00
sVcontains(Deposit)
p782
I01
sVcontains(RD)
p783
I00
sVcontains(FD)
p784
I00
sVcontains(about)
p785
I01
sVcontains(Hello)
p786
I00
sVcontains(rates)
p787
I00
sVcontains(provide)
p788
I00
sVcontains(world)
p789
I00
sVcontains(recurring)
p790
I00
sVcontains(Require)
p791
I00
sVcontains(and)
p792
I00
sVcontains(Please)
p793
I00
sVcontains(Click)
p794
I00
sVcontains(require)
p795
I01
sVcontains(To)
p796
I00
sg688
tp797
asS'train_set'
p798
(lp799
(S'Hello '
p800
g36
tp801
a(S'Hello world'
p802
g36
tp803
a(S'Hi'
p804
g36
tp805
a(S'Please provide FD info'
p806
g118
tp807
a(S'Please provide information on FD'
p808
g118
tp809
a(S'Require information on Fixed Deposit'
p810
g118
tp811
a(S'Require information on FD'
p812
g118
tp813
a(S'Fixed Deposit information'
p814
g118
tp815
a(S'Fixed Deposit'
p816
g118
tp817
a(S'FD'
p818
g118
tp819
a(S'Please provide RD info'
p820
g308
tp821
a(S'Please provide information on RD'
p822
g308
tp823
a(S'Require information on RD'
p824
g308
tp825
a(S'Require information on recurring Deposit'
p826
g308
tp827
a(S'recurring Deposit information '
p828
g308
tp829
a(S'recurring Deposit'
p830
g308
tp831
a(S'RD'
p832
g308
tp833
a(S'To know about Fixed Deposit Rates'
p834
g498
tp835
a(S'information on Fixed Deposit Rates'
p836
g498
tp837
a(S'Click To know about Fixed Deposit Rates and advantages'
p838
g498
tp839
a(S'information on FD rates'
p840
g498
tp841
a(S'info on Fixed Deposit rates'
p842
g498
tp843
a(S'info on FD rates'
p844
g498
tp845
a(S'require information on rates for FD'
p846
g498
tp847
a(S'To know about Fixed Deposit tenures'
p848
g688
tp849
a(S'information on Fixed Deposit  tenures'
p850
g688
tp851
a(S'information on Fixed Deposit tenures'
p852
g688
tp853
a(g848
g688
tp854
a(S'require information about Fixed Deposit for tenures'
p855
g688
tp856
asS'feature_extractor'
p857
ctextblob.classifiers
basic_extractor
p858
sb.